; Function Attrs: mustprogress nofree nounwind willreturn memory(read) uwtable
define noundef zeroext i1 @_ZN6casadi8Importer9test_castEPKNS_20SharedObjectInternalE(ptr noundef readonly %0) local_unnamed_addr #6 align 2 {
  %2 = icmp eq ptr %0, null
  br i1 %2, label %6, label %3

3:                                                ; preds = %1
  %4 = tail call ptr @__dynamic_cast(ptr nonnull %0, ptr nonnull @_ZTIN6casadi20SharedObjectInternalE, ptr nonnull @_ZTIN6casadi16ImporterInternalE, i64 0) #17
  %5 = icmp ne ptr %4, null
  br label %6

6:                                                ; preds = %1, %3
  %7 = phi i1 [ %5, %3 ], [ false, %1 ]
  ret i1 %7
}